target datalayout = "e-m:e-p270:32:32-p271:32:32-p272:64:64-i64:64-i128:128-f80:128-n8:16:32:64-S128"
target triple = "x86_64-pc-linux-gnu"

%"class.cv::GKernelPackage" = type { %"class.std::unordered_map", %"class.std::vector" }
%"class.std::unordered_map" = type { %"class.std::_Hashtable" }
%"class.std::_Hashtable" = type { ptr, i64, %"struct.std::__detail::_Hash_node_base", i64, %"struct.std::__detail::_Prime_rehash_policy", ptr }
%"struct.std::__detail::_Hash_node_base" = type { ptr }
%"struct.std::__detail::_Prime_rehash_policy" = type { float, i64 }
%"class.std::vector" = type { %"struct.std::_Vector_base" }
%"struct.std::_Vector_base" = type { %"struct.std::_Vector_base<cv::GTransform, std::allocator<cv::GTransform>>::_Vector_impl" }
%"struct.std::_Vector_base<cv::GTransform, std::allocator<cv::GTransform>>::_Vector_impl" = type { %"struct.std::_Vector_base<cv::GTransform, std::allocator<cv::GTransform>>::_Vector_impl_data" }
%"struct.std::_Vector_base<cv::GTransform, std::allocator<cv::GTransform>>::_Vector_impl_data" = type { ptr, ptr, ptr }
%"class.std::allocator" = type { i8 }
%"struct.std::__detail::_AllocNode" = type { ptr }

@__dso_handle = external hidden global i8
@_ZZN2cv4gapi7calib3d3cpu7kernelsEvE3pkg = internal global %"class.cv::GKernelPackage" zeroinitializer, align 8
@_ZGVZN2cv4gapi7calib3d3cpu7kernelsEvE3pkg = internal global i64 0, align 8

; Function Attrs: mustprogress nounwind uwtable
define linkonce_odr hidden void @_ZNSt15__new_allocatorINSt8__detail10_Hash_nodeISt4pairIKNSt7__cxx1112basic_stringIcSt11char_traitsIcESaIcEEES2_IN2cv4gapi8GBackendENSA_11GKernelImplEEELb1EEEEC2ERKSH_(ptr noundef nonnull align 1 dereferenceable(1) %0, ptr noundef nonnull align 1 dereferenceable(1) %1) unnamed_addr #7 comdat align 2 {
  %3 = alloca ptr, align 8
  %4 = alloca ptr, align 8
  store ptr %0, ptr %3, align 8, !tbaa !69
  store ptr %1, ptr %4, align 8, !tbaa !69
  ret void
}

; Function Attrs: mustprogress nounwind uwtable
define linkonce_odr hidden void @_ZNSaINSt8__detail10_Hash_nodeISt4pairIKNSt7__cxx1112basic_stringIcSt11char_traitsIcESaIcEEES1_IN2cv4gapi8GBackendENS9_11GKernelImplEEELb1EEEEC2ERKSG_(ptr noundef nonnull align 1 dereferenceable(1) %0, ptr noundef nonnull align 1 dereferenceable(1) %1) unnamed_addr #7 comdat align 2 {
  %3 = alloca ptr, align 8
  %4 = alloca ptr, align 8
  store ptr %0, ptr %3, align 8, !tbaa !63
  store ptr %1, ptr %4, align 8, !tbaa !63
  %5 = load ptr, ptr %3, align 8
  %6 = load ptr, ptr %4, align 8, !tbaa !63
  call void @_ZNSt15__new_allocatorINSt8__detail10_Hash_nodeISt4pairIKNSt7__cxx1112basic_stringIcSt11char_traitsIcESaIcEEES2_IN2cv4gapi8GBackendENSA_11GKernelImplEEELb1EEEEC2ERKSH_(ptr noundef nonnull align 1 dereferenceable(1) %5, ptr noundef nonnull align 1 dereferenceable(1) %6) #3
  ret void
}

; Function Attrs: mustprogress nounwind uwtable
define linkonce_odr hidden void @_ZNSt8__detail21_Hashtable_ebo_helperILi0ESaINS_10_Hash_nodeISt4pairIKNSt7__cxx1112basic_stringIcSt11char_traitsIcESaIcEEES2_IN2cv4gapi8GBackendENSA_11GKernelImplEEELb1EEEELb1EEC2ISH_EEOT_(ptr noundef nonnull align 1 dereferenceable(1) %0, ptr noundef nonnull align 1 dereferenceable(1) %1) unnamed_addr #7 comdat align 2 {
  %3 = alloca ptr, align 8
  %4 = alloca ptr, align 8
  store ptr %0, ptr %3, align 8, !tbaa !118
  store ptr %1, ptr %4, align 8, !tbaa !63
  %5 = load ptr, ptr %3, align 8
  %6 = load ptr, ptr %4, align 8, !tbaa !63
  call void @_ZNSaINSt8__detail10_Hash_nodeISt4pairIKNSt7__cxx1112basic_stringIcSt11char_traitsIcESaIcEEES1_IN2cv4gapi8GBackendENS9_11GKernelImplEEELb1EEEEC2ERKSG_(ptr noundef nonnull align 1 dereferenceable(1) %5, ptr noundef nonnull align 1 dereferenceable(1) %6) #3
  ret void
}

; Function Attrs: mustprogress nounwind uwtable
define linkonce_odr hidden void @_ZNSt16allocator_traitsISaINSt8__detail10_Hash_nodeISt4pairIKNSt7__cxx1112basic_stringIcSt11char_traitsIcESaIcEEES2_IN2cv4gapi8GBackendENSA_11GKernelImplEEELb1EEEEE37select_on_container_copy_constructionERKSH_(ptr dead_on_unwind noalias writable sret(%"class.std::allocator") align 1 %0, ptr noundef nonnull align 1 dereferenceable(1) %1) #7 comdat align 2 {
  %3 = alloca ptr, align 8
  %4 = alloca ptr, align 8
  store ptr %0, ptr %3, align 8
  store ptr %1, ptr %4, align 8, !tbaa !63
  %5 = load ptr, ptr %4, align 8, !tbaa !63
  call void @_ZNSaINSt8__detail10_Hash_nodeISt4pairIKNSt7__cxx1112basic_stringIcSt11char_traitsIcESaIcEEES1_IN2cv4gapi8GBackendENS9_11GKernelImplEEELb1EEEEC2ERKSG_(ptr noundef nonnull align 1 dereferenceable(1) %0, ptr noundef nonnull align 1 dereferenceable(1) %5) #3
  ret void
}

; Function Attrs: mustprogress nounwind uwtable
define linkonce_odr hidden noundef nonnull align 1 dereferenceable(1) ptr @_ZNKSt8__detail21_Hashtable_ebo_helperILi0ESaINS_10_Hash_nodeISt4pairIKNSt7__cxx1112basic_stringIcSt11char_traitsIcESaIcEEES2_IN2cv4gapi8GBackendENSA_11GKernelImplEEELb1EEEELb1EE7_M_cgetEv(ptr noundef nonnull align 1 dereferenceable(1) %0) #7 comdat align 2 {
  %2 = alloca ptr, align 8
  store ptr %0, ptr %2, align 8, !tbaa !118
  %3 = load ptr, ptr %2, align 8
  ret ptr %3
}

; Function Attrs: mustprogress nounwind uwtable
define linkonce_odr hidden void @_ZNSt8__detail10_AllocNodeISaINS_10_Hash_nodeISt4pairIKNSt7__cxx1112basic_stringIcSt11char_traitsIcESaIcEEES2_IN2cv4gapi8GBackendENSA_11GKernelImplEEELb1EEEEEC2ERNS_16_Hashtable_allocISH_EE(ptr noundef nonnull align 8 dereferenceable(8) %0, ptr noundef nonnull align 1 dereferenceable(1) %1) unnamed_addr #7 comdat align 2 {
  %3 = alloca ptr, align 8
  %4 = alloca ptr, align 8
  store ptr %0, ptr %3, align 8, !tbaa !131
  store ptr %1, ptr %4, align 8, !tbaa !57
  %5 = load ptr, ptr %3, align 8
  %6 = getelementptr inbounds nuw %"struct.std::__detail::_AllocNode", ptr %5, i32 0, i32 0
  %7 = load ptr, ptr %4, align 8, !tbaa !57
  store ptr %7, ptr %6, align 8, !tbaa !57
  ret void
}

; Function Attrs: mustprogress nounwind uwtable
define linkonce_odr hidden void @_ZNSt8__detail15_Hash_node_baseC2Ev(ptr noundef nonnull align 8 dereferenceable(8) %0) unnamed_addr #7 comdat align 2 {
  %2 = alloca ptr, align 8
  store ptr %0, ptr %2, align 8, !tbaa !130
  %3 = load ptr, ptr %2, align 8
  %4 = getelementptr inbounds nuw %"struct.std::__detail::_Hash_node_base", ptr %3, i32 0, i32 0
  store ptr null, ptr %4, align 8, !tbaa !62
  ret void
}

; Function Attrs: mustprogress nounwind uwtable
define linkonce_odr hidden void @_ZNSt15__new_allocatorINSt8__detail10_Hash_nodeISt4pairIKNSt7__cxx1112basic_stringIcSt11char_traitsIcESaIcEEES2_IN2cv4gapi8GBackendENSA_11GKernelImplEEELb1EEEED2Ev(ptr noundef nonnull align 1 dereferenceable(1) %0) unnamed_addr #7 comdat align 2 {
  %2 = alloca ptr, align 8
  store ptr %0, ptr %2, align 8, !tbaa !69
  ret void
}

; Function Attrs: mustprogress uwtable
define linkonce_odr hidden void @_ZNSt8__detail16_Hashtable_allocISaINS_10_Hash_nodeISt4pairIKNSt7__cxx1112basic_stringIcSt11char_traitsIcESaIcEEES2_IN2cv4gapi8GBackendENSA_11GKernelImplEEELb1EEEEEC2ISH_EEOT_(ptr noundef nonnull align 1 dereferenceable(1) %0, ptr noundef nonnull align 1 dereferenceable(1) %1) unnamed_addr #4 comdat align 2 {
  %3 = alloca ptr, align 8
  %4 = alloca ptr, align 8
  store ptr %0, ptr %3, align 8, !tbaa !57
  store ptr %1, ptr %4, align 8, !tbaa !63
  %5 = load ptr, ptr %3, align 8
  %6 = load ptr, ptr %4, align 8, !tbaa !63
  call void @_ZNSt8__detail21_Hashtable_ebo_helperILi0ESaINS_10_Hash_nodeISt4pairIKNSt7__cxx1112basic_stringIcSt11char_traitsIcESaIcEEES2_IN2cv4gapi8GBackendENSA_11GKernelImplEEELb1EEEELb1EEC2ISH_EEOT_(ptr noundef nonnull align 1 dereferenceable(1) %5, ptr noundef nonnull align 1 dereferenceable(1) %6)
  ret void
}

; Function Attrs: mustprogress uwtable
define linkonce_odr hidden void @_ZN9__gnu_cxx14__alloc_traitsISaINSt8__detail10_Hash_nodeISt4pairIKNSt7__cxx1112basic_stringIcSt11char_traitsIcESaIcEEES3_IN2cv4gapi8GBackendENSB_11GKernelImplEEELb1EEEESH_E17_S_select_on_copyERKSI_(ptr dead_on_unwind noalias writable sret(%"class.std::allocator") align 1 %0, ptr noundef nonnull align 1 dereferenceable(1) %1) #4 comdat align 2 {
  %3 = alloca ptr, align 8
  %4 = alloca ptr, align 8
  store ptr %0, ptr %3, align 8
  store ptr %1, ptr %4, align 8, !tbaa !63
  %5 = load ptr, ptr %4, align 8, !tbaa !63
  call void @_ZNSt16allocator_traitsISaINSt8__detail10_Hash_nodeISt4pairIKNSt7__cxx1112basic_stringIcSt11char_traitsIcESaIcEEES2_IN2cv4gapi8GBackendENSA_11GKernelImplEEELb1EEEEE37select_on_container_copy_constructionERKSH_(ptr dead_on_unwind writable sret(%"class.std::allocator") align 1 %0, ptr noundef nonnull align 1 dereferenceable(1) %5)
  ret void
}

; Function Attrs: mustprogress uwtable
define linkonce_odr hidden noundef nonnull align 1 dereferenceable(1) ptr @_ZNKSt8__detail16_Hashtable_allocISaINS_10_Hash_nodeISt4pairIKNSt7__cxx1112basic_stringIcSt11char_traitsIcESaIcEEES2_IN2cv4gapi8GBackendENSA_11GKernelImplEEELb1EEEEE17_M_node_allocatorEv(ptr noundef nonnull align 1 dereferenceable(1) %0) #4 comdat align 2 {
  %2 = alloca ptr, align 8
  store ptr %0, ptr %2, align 8, !tbaa !57
  %3 = load ptr, ptr %2, align 8
  %4 = call noundef nonnull align 1 dereferenceable(1) ptr @_ZNKSt8__detail21_Hashtable_ebo_helperILi0ESaINS_10_Hash_nodeISt4pairIKNSt7__cxx1112basic_stringIcSt11char_traitsIcESaIcEEES2_IN2cv4gapi8GBackendENSA_11GKernelImplEEELb1EEEELb1EE7_M_cgetEv(ptr noundef nonnull align 1 dereferenceable(1) %3)
  ret ptr %4
}

; Function Attrs: mustprogress uwtable
define linkonce_odr void @_ZNSt10_HashtableINSt7__cxx1112basic_stringIcSt11char_traitsIcESaIcEEESt4pairIKS5_S6_IN2cv4gapi8GBackendENS8_11GKernelImplEEESaISD_ENSt8__detail10_Select1stESt8equal_toIS5_ESt4hashIS5_ENSF_18_Mod_range_hashingENSF_20_Default_ranged_hashENSF_20_Prime_rehash_policyENSF_17_Hashtable_traitsILb1ELb0ELb1EEEEC2ERKSQ_(ptr noundef nonnull align 8 dereferenceable(56) %0, ptr noundef nonnull align 8 dereferenceable(56) %1) unnamed_addr #4 comdat align 2 personality ptr @__gxx_personality_v0 {
  %3 = alloca ptr, align 8
  %4 = alloca ptr, align 8
  %5 = alloca %"class.std::allocator", align 1
  %6 = alloca ptr, align 8
  %7 = alloca i32, align 4
  %8 = alloca %"struct.std::__detail::_AllocNode", align 8
  store ptr %0, ptr %3, align 8, !tbaa !44
  store ptr %1, ptr %4, align 8, !tbaa !44
  %9 = load ptr, ptr %3, align 8
  call void @llvm.lifetime.start.p0(i64 1, ptr %5) #3
  %10 = load ptr, ptr %4, align 8, !tbaa !44
  %11 = call noundef nonnull align 1 dereferenceable(1) ptr @_ZNKSt8__detail16_Hashtable_allocISaINS_10_Hash_nodeISt4pairIKNSt7__cxx1112basic_stringIcSt11char_traitsIcESaIcEEES2_IN2cv4gapi8GBackendENSA_11GKernelImplEEELb1EEEEE17_M_node_allocatorEv(ptr noundef nonnull align 1 dereferenceable(1) %10)
  call void @_ZN9__gnu_cxx14__alloc_traitsISaINSt8__detail10_Hash_nodeISt4pairIKNSt7__cxx1112basic_stringIcSt11char_traitsIcESaIcEEES3_IN2cv4gapi8GBackendENSB_11GKernelImplEEELb1EEEESH_E17_S_select_on_copyERKSI_(ptr dead_on_unwind writable sret(%"class.std::allocator") align 1 %5, ptr noundef nonnull align 1 dereferenceable(1) %11)
  invoke void @_ZNSt8__detail16_Hashtable_allocISaINS_10_Hash_nodeISt4pairIKNSt7__cxx1112basic_stringIcSt11char_traitsIcESaIcEEES2_IN2cv4gapi8GBackendENSA_11GKernelImplEEELb1EEEEEC2ISH_EEOT_(ptr noundef nonnull align 1 dereferenceable(1) %9, ptr noundef nonnull align 1 dereferenceable(1) %5)
          to label %12 unwind label %30

12:                                               ; preds = %2
  call void @_ZNSt15__new_allocatorINSt8__detail10_Hash_nodeISt4pairIKNSt7__cxx1112basic_stringIcSt11char_traitsIcESaIcEEES2_IN2cv4gapi8GBackendENSA_11GKernelImplEEELb1EEEED2Ev(ptr noundef nonnull align 1 dereferenceable(1) %5) #3
  call void @llvm.lifetime.end.p0(i64 1, ptr %5) #3
  %13 = getelementptr inbounds nuw %"class.std::_Hashtable", ptr %9, i32 0, i32 0
  store ptr null, ptr %13, align 8, !tbaa !46
  %14 = getelementptr inbounds nuw %"class.std::_Hashtable", ptr %9, i32 0, i32 1
  %15 = load ptr, ptr %4, align 8, !tbaa !44
  %16 = getelementptr inbounds nuw %"class.std::_Hashtable", ptr %15, i32 0, i32 1
  %17 = load i64, ptr %16, align 8, !tbaa !54
  store i64 %17, ptr %14, align 8, !tbaa !54
  %18 = getelementptr inbounds nuw %"class.std::_Hashtable", ptr %9, i32 0, i32 2
  call void @_ZNSt8__detail15_Hash_node_baseC2Ev(ptr noundef nonnull align 8 dereferenceable(8) %18) #3
  %19 = getelementptr inbounds nuw %"class.std::_Hashtable", ptr %9, i32 0, i32 3
  %20 = load ptr, ptr %4, align 8, !tbaa !44
  %21 = getelementptr inbounds nuw %"class.std::_Hashtable", ptr %20, i32 0, i32 3
  %22 = load i64, ptr %21, align 8, !tbaa !55
  store i64 %22, ptr %19, align 8, !tbaa !55
  %23 = getelementptr inbounds nuw %"class.std::_Hashtable", ptr %9, i32 0, i32 4
  %24 = load ptr, ptr %4, align 8, !tbaa !44
  %25 = getelementptr inbounds nuw %"class.std::_Hashtable", ptr %24, i32 0, i32 4
  call void @llvm.memcpy.p0.p0.i64(ptr align 8 %23, ptr align 8 %25, i64 16, i1 false), !tbaa.struct !127
  %26 = getelementptr inbounds nuw %"class.std::_Hashtable", ptr %9, i32 0, i32 5
  store ptr null, ptr %26, align 8, !tbaa !129
  call void @llvm.lifetime.start.p0(i64 8, ptr %8) #3
  invoke void @_ZNSt8__detail10_AllocNodeISaINS_10_Hash_nodeISt4pairIKNSt7__cxx1112basic_stringIcSt11char_traitsIcESaIcEEES2_IN2cv4gapi8GBackendENSA_11GKernelImplEEELb1EEEEEC2ERNS_16_Hashtable_allocISH_EE(ptr noundef nonnull align 8 dereferenceable(8) %8, ptr noundef nonnull align 1 dereferenceable(1) %9)
          to label %27 unwind label %34

27:                                               ; preds = %12
  %28 = load ptr, ptr %4, align 8, !tbaa !44
  invoke void @_ZNSt10_HashtableINSt7__cxx1112basic_stringIcSt11char_traitsIcESaIcEEESt4pairIKS5_S6_IN2cv4gapi8GBackendENS8_11GKernelImplEEESaISD_ENSt8__detail10_Select1stESt8equal_toIS5_ESt4hashIS5_ENSF_18_Mod_range_hashingENSF_20_Default_ranged_hashENSF_20_Prime_rehash_policyENSF_17_Hashtable_traitsILb1ELb0ELb1EEEE9_M_assignIRKSQ_NSF_10_AllocNodeISaINSF_10_Hash_nodeISD_Lb1EEEEEEEEvOT_RKT0_(ptr noundef nonnull align 8 dereferenceable(56) %9, ptr noundef nonnull align 8 dereferenceable(56) %28, ptr noundef nonnull align 8 dereferenceable(8) %8)
          to label %29 unwind label %34

29:                                               ; preds = %27
  call void @llvm.lifetime.end.p0(i64 8, ptr %8) #3
  ret void

30:                                               ; preds = %2
  %31 = landingpad { ptr, i32 }
          cleanup
  %32 = extractvalue { ptr, i32 } %31, 0
  store ptr %32, ptr %6, align 8
  %33 = extractvalue { ptr, i32 } %31, 1
  store i32 %33, ptr %7, align 4
  call void @_ZNSt15__new_allocatorINSt8__detail10_Hash_nodeISt4pairIKNSt7__cxx1112basic_stringIcSt11char_traitsIcESaIcEEES2_IN2cv4gapi8GBackendENSA_11GKernelImplEEELb1EEEED2Ev(ptr noundef nonnull align 1 dereferenceable(1) %5) #3
  call void @llvm.lifetime.end.p0(i64 1, ptr %5) #3
  br label %38

34:                                               ; preds = %27, %12
  %35 = landingpad { ptr, i32 }
          cleanup
  %36 = extractvalue { ptr, i32 } %35, 0
  store ptr %36, ptr %6, align 8
  %37 = extractvalue { ptr, i32 } %35, 1
  store i32 %37, ptr %7, align 4
  call void @llvm.lifetime.end.p0(i64 8, ptr %8) #3
  call void @_ZNSt15__new_allocatorINSt8__detail10_Hash_nodeISt4pairIKNSt7__cxx1112basic_stringIcSt11char_traitsIcESaIcEEES2_IN2cv4gapi8GBackendENSA_11GKernelImplEEELb1EEEED2Ev(ptr noundef nonnull align 1 dereferenceable(1) %9) #3
  br label %38

38:                                               ; preds = %34, %30
  %39 = load ptr, ptr %6, align 8
  %40 = load i32, ptr %7, align 4
  %41 = insertvalue { ptr, i32 } poison, ptr %39, 0
  %42 = insertvalue { ptr, i32 } %41, i32 %40, 1
  resume { ptr, i32 } %42
}

; Function Attrs: mustprogress uwtable
define linkonce_odr hidden void @_ZNSt13unordered_mapINSt7__cxx1112basic_stringIcSt11char_traitsIcESaIcEEESt4pairIN2cv4gapi8GBackendENS7_11GKernelImplEESt4hashIS5_ESt8equal_toIS5_ESaIS6_IKS5_SB_EEEC2ERKSJ_(ptr noundef nonnull align 8 dereferenceable(56) %0, ptr noundef nonnull align 8 dereferenceable(56) %1) unnamed_addr #4 comdat align 2 {
  %3 = alloca ptr, align 8
  %4 = alloca ptr, align 8
  store ptr %0, ptr %3, align 8, !tbaa !17
  store ptr %1, ptr %4, align 8, !tbaa !17
  %5 = load ptr, ptr %3, align 8
  %6 = getelementptr inbounds nuw %"class.std::unordered_map", ptr %5, i32 0, i32 0
  %7 = load ptr, ptr %4, align 8, !tbaa !17
  %8 = getelementptr inbounds nuw %"class.std::unordered_map", ptr %7, i32 0, i32 0
  call void @_ZNSt10_HashtableINSt7__cxx1112basic_stringIcSt11char_traitsIcESaIcEEESt4pairIKS5_S6_IN2cv4gapi8GBackendENS8_11GKernelImplEEESaISD_ENSt8__detail10_Select1stESt8equal_toIS5_ESt4hashIS5_ENSF_18_Mod_range_hashingENSF_20_Default_ranged_hashENSF_20_Prime_rehash_policyENSF_17_Hashtable_traitsILb1ELb0ELb1EEEEC2ERKSQ_(ptr noundef nonnull align 8 dereferenceable(56) %6, ptr noundef nonnull align 8 dereferenceable(56) %8)
  ret void
}

; Function Attrs: inlinehint mustprogress uwtable
define linkonce_odr hidden void @_ZN2cv14GKernelPackageC2ERKS0_(ptr noundef nonnull align 8 dereferenceable(80) %0, ptr noundef nonnull align 8 dereferenceable(80) %1) unnamed_addr #6 comdat align 2 personality ptr @__gxx_personality_v0 {
  %3 = alloca ptr, align 8
  %4 = alloca ptr, align 8
  %5 = alloca ptr, align 8
  %6 = alloca i32, align 4
  store ptr %0, ptr %3, align 8, !tbaa !8
  store ptr %1, ptr %4, align 8, !tbaa !8
  %7 = load ptr, ptr %3, align 8
  %8 = getelementptr inbounds nuw %"class.cv::GKernelPackage", ptr %7, i32 0, i32 0
  %9 = load ptr, ptr %4, align 8, !tbaa !8
  %10 = getelementptr inbounds nuw %"class.cv::GKernelPackage", ptr %9, i32 0, i32 0
  call void @_ZNSt13unordered_mapINSt7__cxx1112basic_stringIcSt11char_traitsIcESaIcEEESt4pairIN2cv4gapi8GBackendENS7_11GKernelImplEESt4hashIS5_ESt8equal_toIS5_ESaIS6_IKS5_SB_EEEC2ERKSJ_(ptr noundef nonnull align 8 dereferenceable(56) %8, ptr noundef nonnull align 8 dereferenceable(56) %10)
  %11 = getelementptr inbounds nuw %"class.cv::GKernelPackage", ptr %7, i32 0, i32 1
  %12 = load ptr, ptr %4, align 8, !tbaa !8
  %13 = getelementptr inbounds nuw %"class.cv::GKernelPackage", ptr %12, i32 0, i32 1
  invoke void @_ZNSt6vectorIN2cv10GTransformESaIS1_EEC2ERKS3_(ptr noundef nonnull align 8 dereferenceable(24) %11, ptr noundef nonnull align 8 dereferenceable(24) %13)
          to label %14 unwind label %15

14:                                               ; preds = %2
  ret void

15:                                               ; preds = %2
  %16 = landingpad { ptr, i32 }
          cleanup
  %17 = extractvalue { ptr, i32 } %16, 0
  store ptr %17, ptr %5, align 8
  %18 = extractvalue { ptr, i32 } %16, 1
  store i32 %18, ptr %6, align 4
  call void @_ZNSt13unordered_mapINSt7__cxx1112basic_stringIcSt11char_traitsIcESaIcEEESt4pairIN2cv4gapi8GBackendENS7_11GKernelImplEESt4hashIS5_ESt8equal_toIS5_ESaIS6_IKS5_SB_EEED2Ev(ptr noundef nonnull align 8 dereferenceable(56) %8) #3
  br label %19

19:                                               ; preds = %15
  %20 = load ptr, ptr %5, align 8
  %21 = load i32, ptr %6, align 4
  %22 = insertvalue { ptr, i32 } poison, ptr %20, 0
  %23 = insertvalue { ptr, i32 } %22, i32 %21, 1
  resume { ptr, i32 } %23
}

; Function Attrs: mustprogress uwtable
define void @_ZN2cv4gapi7calib3d3cpu7kernelsEv(ptr dead_on_unwind noalias writable sret(%"class.cv::GKernelPackage") align 8 %0) #4 personality ptr @__gxx_personality_v0 {
  %2 = alloca ptr, align 8
  %3 = alloca ptr, align 8
  %4 = alloca i32, align 4
  store ptr %0, ptr %2, align 8
  %5 = load atomic i8, ptr @_ZGVZN2cv4gapi7calib3d3cpu7kernelsEvE3pkg acquire, align 8
  %6 = icmp eq i8 %5, 0
  br i1 %6, label %7, label %13, !prof !3

7:                                                ; preds = %1
  %8 = call i32 @__cxa_guard_acquire(ptr @_ZGVZN2cv4gapi7calib3d3cpu7kernelsEvE3pkg) #3
  %9 = icmp ne i32 %8, 0
  br i1 %9, label %10, label %13

10:                                               ; preds = %7
  invoke void @_ZN2cv4gapi7kernelsIJ10GCPUStereoEEENS_14GKernelPackageEv(ptr dead_on_unwind writable sret(%"class.cv::GKernelPackage") align 8 @_ZZN2cv4gapi7calib3d3cpu7kernelsEvE3pkg)
          to label %11 unwind label %14

11:                                               ; preds = %10
  %12 = call i32 @__cxa_atexit(ptr @_ZN2cv14GKernelPackageD2Ev, ptr @_ZZN2cv4gapi7calib3d3cpu7kernelsEvE3pkg, ptr @__dso_handle) #3
  call void @__cxa_guard_release(ptr @_ZGVZN2cv4gapi7calib3d3cpu7kernelsEvE3pkg) #3
  br label %13

13:                                               ; preds = %11, %7, %1
  call void @_ZN2cv14GKernelPackageC2ERKS0_(ptr noundef nonnull align 8 dereferenceable(80) %0, ptr noundef nonnull align 8 dereferenceable(80) @_ZZN2cv4gapi7calib3d3cpu7kernelsEvE3pkg)
  ret void

14:                                               ; preds = %10
  %15 = landingpad { ptr, i32 }
          cleanup
  %16 = extractvalue { ptr, i32 } %15, 0
  store ptr %16, ptr %3, align 8
  %17 = extractvalue { ptr, i32 } %15, 1
  store i32 %17, ptr %4, align 4
  call void @__cxa_guard_abort(ptr @_ZGVZN2cv4gapi7calib3d3cpu7kernelsEvE3pkg) #3
  br label %18

18:                                               ; preds = %14
  %19 = load ptr, ptr %3, align 8
  %20 = load i32, ptr %4, align 4
  %21 = insertvalue { ptr, i32 } poison, ptr %19, 0
  %22 = insertvalue { ptr, i32 } %21, i32 %20, 1
  resume { ptr, i32 } %22
}